; Function Attrs: mustprogress uwtable
define internal noundef zeroext i1 @"_ZNSt17_Function_handlerIFbRKN4lean4exprEEZNS0_10use_unsafeERKNS0_11environmentES3_E3$_0E9_M_invokeERKSt9_Any_dataS3_"(ptr noundef nonnull readonly align 8 captures(none) dereferenceable(16) %0, ptr noundef nonnull readonly align 8 captures(none) dereferenceable(8) %1) #0 align 2 personality ptr @__gxx_personality_v0 {
  %3 = alloca %"class.lean::optional", align 8
  %.val = load ptr, ptr %1, align 8
  %4 = load ptr, ptr %0, align 8, !tbaa !104
  %5 = load i8, ptr %4, align 1, !tbaa !26, !range !36, !noundef !37
  %6 = trunc nuw i8 %5 to i1
  br i1 %6, label %"_ZSt10__invoke_rIbRZN4lean10use_unsafeERKNS0_11environmentERKNS0_4exprEE3$_0JS6_EENSt9enable_ifIXntsr7is_voidIT_EE5valueESA_E4typeEOT0_DpOT1_.exit", label %7

7:                                                ; preds = %2
  %8 = getelementptr i8, ptr %.val, i64 4
  %.val.i.i.i.i.i.i.i.i = load i32, ptr %8, align 4
  %.mask.i.i.i.i.i = and i32 %.val.i.i.i.i.i.i.i.i, -16777216
  %9 = icmp eq i32 %.mask.i.i.i.i.i, 67108864
  br i1 %9, label %10, label %42

10:                                               ; preds = %7
  call void @llvm.lifetime.start.p0(i64 16, ptr nonnull %3) #16
  %11 = getelementptr inbounds nuw i8, ptr %0, i64 8
  %12 = load ptr, ptr %11, align 8, !tbaa !106
  %13 = getelementptr inbounds nuw i8, ptr %.val, i64 8
  call void @_ZNK4lean11environment4findERKNS_4nameE(ptr dead_on_unwind nonnull writable sret(%"class.lean::optional") align 8 %3, ptr noundef nonnull align 8 dereferenceable(8) %12, ptr noundef nonnull align 8 dereferenceable(8) %13)
  %14 = load i8, ptr %3, align 8, !tbaa !98, !range !36, !noundef !37
  %15 = trunc nuw i8 %14 to i1
  br i1 %15, label %16, label %24

16:                                               ; preds = %10
  %17 = getelementptr inbounds nuw i8, ptr %3, i64 8
  %18 = invoke noundef zeroext i1 @_ZNK4lean13constant_info9is_unsafeEv(ptr noundef nonnull align 8 dereferenceable(8) %17)
          to label %19 unwind label %22

19:                                               ; preds = %16
  br i1 %18, label %20, label %24

20:                                               ; preds = %19
  %21 = load ptr, ptr %0, align 8, !tbaa !104
  store i8 1, ptr %21, align 1, !tbaa !26
  br label %24

22:                                               ; preds = %16
  %23 = landingpad { ptr, i32 }
          cleanup
  call void @_ZN4lean8optionalINS_13constant_infoEED2Ev(ptr noundef nonnull align 8 dereferenceable(16) %3) #16
  call void @llvm.lifetime.end.p0(i64 16, ptr nonnull %3) #16
  resume { ptr, i32 } %23

24:                                               ; preds = %20, %19, %10
  %switch.i.i.i = phi i1 [ false, %20 ], [ true, %19 ], [ true, %10 ]
  %25 = load i8, ptr %3, align 8, !tbaa !98, !range !36, !noundef !37
  %26 = trunc nuw i8 %25 to i1
  br i1 %26, label %27, label %_ZN4lean8optionalINS_13constant_infoEED2Ev.exit.i.i.i

27:                                               ; preds = %24
  %28 = getelementptr inbounds nuw i8, ptr %3, i64 8
  %29 = load ptr, ptr %28, align 8, !tbaa !3
  %30 = ptrtoint ptr %29 to i64
  %31 = and i64 %30, 1
  %.not.i.i.i.i.i.i = icmp eq i64 %31, 0
  br i1 %.not.i.i.i.i.i.i, label %32, label %_ZN4lean8optionalINS_13constant_infoEED2Ev.exit.i.i.i

32:                                               ; preds = %27
  %33 = load i32, ptr %29, align 4, !tbaa !8
  %34 = icmp sgt i32 %33, 1
  br i1 %34, label %35, label %37, !prof !11

35:                                               ; preds = %32
  %36 = add nsw i32 %33, -1
  store i32 %36, ptr %29, align 4, !tbaa !8
  br label %_ZN4lean8optionalINS_13constant_infoEED2Ev.exit.i.i.i

37:                                               ; preds = %32
  %.not.i.i.i.i.i.i.i = icmp eq i32 %33, 0
  br i1 %.not.i.i.i.i.i.i.i, label %_ZN4lean8optionalINS_13constant_infoEED2Ev.exit.i.i.i, label %38

38:                                               ; preds = %37
  invoke void @lean_dec_ref_cold(ptr noundef nonnull %29)
          to label %_ZN4lean8optionalINS_13constant_infoEED2Ev.exit.i.i.i unwind label %39

39:                                               ; preds = %38
  %40 = landingpad { ptr, i32 }
          catch ptr null
  %41 = extractvalue { ptr, i32 } %40, 0
  call void @__clang_call_terminate(ptr %41) #18
  unreachable

_ZN4lean8optionalINS_13constant_infoEED2Ev.exit.i.i.i: ; preds = %38, %37, %35, %27, %24
  call void @llvm.lifetime.end.p0(i64 16, ptr nonnull %3) #16
  br i1 %switch.i.i.i, label %42, label %"_ZSt10__invoke_rIbRZN4lean10use_unsafeERKNS0_11environmentERKNS0_4exprEE3$_0JS6_EENSt9enable_ifIXntsr7is_voidIT_EE5valueESA_E4typeEOT0_DpOT1_.exit"

42:                                               ; preds = %_ZN4lean8optionalINS_13constant_infoEED2Ev.exit.i.i.i, %7
  br label %"_ZSt10__invoke_rIbRZN4lean10use_unsafeERKNS0_11environmentERKNS0_4exprEE3$_0JS6_EENSt9enable_ifIXntsr7is_voidIT_EE5valueESA_E4typeEOT0_DpOT1_.exit"

"_ZSt10__invoke_rIbRZN4lean10use_unsafeERKNS0_11environmentERKNS0_4exprEE3$_0JS6_EENSt9enable_ifIXntsr7is_voidIT_EE5valueESA_E4typeEOT0_DpOT1_.exit": ; preds = %2, %_ZN4lean8optionalINS_13constant_infoEED2Ev.exit.i.i.i, %42
  %.06.i.i.i = phi i1 [ false, %_ZN4lean8optionalINS_13constant_infoEED2Ev.exit.i.i.i ], [ true, %42 ], [ false, %2 ]
  ret i1 %.06.i.i.i
}